target datalayout = "e-m:e-p270:32:32-p271:32:32-p272:64:64-i64:64-i128:128-f80:128-n8:16:32:64-S128"
target triple = "x86_64-pc-linux-gnu"

%struct.add_opts = type { i32, i32, i32, i32, i32, i32, ptr }

@the_repository = external global ptr, align 8
@guess_remote = internal global i32 0, align 4
@.str.36 = private unnamed_addr constant [46 x i8] c"options '%s' and '%s' cannot be used together\00", align 1
@.str.37 = private unnamed_addr constant [9 x i8] c"--orphan\00", align 1
@.str.38 = private unnamed_addr constant [8 x i8] c"--track\00", align 1
@.str.39 = private unnamed_addr constant [14 x i8] c"--no-checkout\00", align 1
@stderr = external global ptr, align 8
@.str.60 = private unnamed_addr constant [48 x i8] c"No possible source branch, inferring '--orphan'\00", align 1
@.str.61 = private unnamed_addr constant [126 x i8] c"No local or remote refs exist despite at least one remote\0Apresent, stopping; use 'add -f' to override or fetch a remote first\00", align 1

; Function Attrs: nounwind uwtable
define internal i32 @can_use_remote_refs(ptr noundef %0) #0 {
  %2 = alloca i32, align 4
  %3 = alloca ptr, align 8
  store ptr %0, ptr %3, align 8, !tbaa !79
  %4 = load i32, ptr @guess_remote, align 4, !tbaa !4
  %5 = icmp ne i32 %4, 0
  br i1 %5, label %7, label %6

6:                                                ; preds = %1
  store i32 0, ptr %2, align 4
  br label %26

7:                                                ; preds = %1
  %8 = load ptr, ptr @the_repository, align 8, !tbaa !13
  %9 = call ptr @get_main_ref_store(ptr noundef %8)
  %10 = call i32 @refs_for_each_remote_ref(ptr noundef %9, ptr noundef @first_valid_ref, ptr noundef null)
  %11 = icmp ne i32 %10, 0
  br i1 %11, label %12, label %13

12:                                               ; preds = %7
  store i32 1, ptr %2, align 4
  br label %26

13:                                               ; preds = %7
  %14 = load ptr, ptr %3, align 8, !tbaa !79
  %15 = getelementptr inbounds nuw %struct.add_opts, ptr %14, i32 0, i32 0
  %16 = load i32, ptr %15, align 8, !tbaa !54
  %17 = icmp ne i32 %16, 0
  br i1 %17, label %23, label %18

18:                                               ; preds = %13
  %19 = call ptr @remote_get(ptr noundef null)
  %20 = icmp ne ptr %19, null
  br i1 %20, label %21, label %23

21:                                               ; preds = %18
  %22 = call ptr @_(ptr noundef @.str.61)
  call void (ptr, ...) @die(ptr noundef %22) #12
  unreachable

23:                                               ; preds = %18, %13
  br label %24

24:                                               ; preds = %23
  br label %25

25:                                               ; preds = %24
  store i32 0, ptr %2, align 4
  br label %26

26:                                               ; preds = %25, %12, %6
  %27 = load i32, ptr %2, align 4
  ret i32 %27
}

; Function Attrs: nounwind uwtable
define internal i32 @dwim_orphan(ptr noundef %0, i32 noundef %1, i32 noundef %2) #0 {
  %4 = alloca i32, align 4
  %5 = alloca ptr, align 8
  %6 = alloca i32, align 4
  %7 = alloca i32, align 4
  store ptr %0, ptr %5, align 8, !tbaa !79
  store i32 %1, ptr %6, align 4, !tbaa !4
  store i32 %2, ptr %7, align 4, !tbaa !4
  %8 = load ptr, ptr %5, align 8, !tbaa !79
  %9 = call i32 @can_use_local_refs(ptr noundef %8)
  %10 = icmp ne i32 %9, 0
  br i1 %10, label %11, label %12

11:                                               ; preds = %3
  store i32 0, ptr %4, align 4
  br label %45

12:                                               ; preds = %3
  %13 = load i32, ptr %7, align 4, !tbaa !4
  %14 = icmp ne i32 %13, 0
  br i1 %14, label %15, label %20

15:                                               ; preds = %12
  %16 = load ptr, ptr %5, align 8, !tbaa !79
  %17 = call i32 @can_use_remote_refs(ptr noundef %16)
  %18 = icmp ne i32 %17, 0
  br i1 %18, label %19, label %20

19:                                               ; preds = %15
  store i32 0, ptr %4, align 4
  br label %45

20:                                               ; preds = %15, %12
  %21 = load ptr, ptr %5, align 8, !tbaa !79
  %22 = getelementptr inbounds nuw %struct.add_opts, ptr %21, i32 0, i32 2
  %23 = load i32, ptr %22, align 8, !tbaa !59
  %24 = icmp ne i32 %23, 0
  br i1 %24, label %29, label %25

25:                                               ; preds = %20
  %26 = load ptr, ptr @stderr, align 8, !tbaa !81
  %27 = call ptr @_(ptr noundef @.str.60)
  %28 = call i32 (ptr, ptr, ...) @fprintf_ln(ptr noundef %26, ptr noundef %27)
  br label %29

29:                                               ; preds = %25, %20
  br label %30

30:                                               ; preds = %29
  br label %31

31:                                               ; preds = %30
  %32 = load i32, ptr %6, align 4, !tbaa !4
  %33 = icmp ne i32 %32, 0
  br i1 %33, label %34, label %36

34:                                               ; preds = %31
  %35 = call ptr @_(ptr noundef @.str.36)
  call void (ptr, ...) @die(ptr noundef %35, ptr noundef @.str.37, ptr noundef @.str.38) #12
  unreachable

36:                                               ; preds = %31
  %37 = load ptr, ptr %5, align 8, !tbaa !79
  %38 = getelementptr inbounds nuw %struct.add_opts, ptr %37, i32 0, i32 3
  %39 = load i32, ptr %38, align 4, !tbaa !48
  %40 = icmp ne i32 %39, 0
  br i1 %40, label %43, label %41

41:                                               ; preds = %36
  %42 = call ptr @_(ptr noundef @.str.36)
  call void (ptr, ...) @die(ptr noundef %42, ptr noundef @.str.37, ptr noundef @.str.39) #12
  unreachable

43:                                               ; preds = %36
  br label %44

44:                                               ; preds = %43
  store i32 1, ptr %4, align 4
  br label %45

45:                                               ; preds = %44, %19, %11
  %46 = load i32, ptr %4, align 4
  ret i32 %46
}