; Function Attrs: nounwind uwtable
define internal fastcc range(i32 0, 2) i32 @dwim_orphan(ptr noundef nonnull readonly captures(none) %0, i32 noundef range(i32 0, 2) %1, i32 noundef range(i32 0, 2) %2) unnamed_addr #0 {
  %4 = tail call fastcc i32 @can_use_local_refs(ptr noundef %0)
  %.not = icmp eq i32 %4, 0
  br i1 %.not, label %5, label %can_use_remote_refs.exit

5:                                                ; preds = %3
  %.not6 = icmp eq i32 %2, 0
  %6 = load i32, ptr @guess_remote, align 4
  %.not.i = icmp eq i32 %6, 0
  %or.cond = select i1 %.not6, i1 true, i1 %.not.i
  br i1 %or.cond, label %can_use_remote_refs.exit.thread, label %7

7:                                                ; preds = %5
  %8 = load ptr, ptr @the_repository, align 8, !tbaa !17
  %9 = tail call ptr @get_main_ref_store(ptr noundef %8) #18
  %10 = tail call i32 @refs_for_each_remote_ref(ptr noundef %9, ptr noundef nonnull @first_valid_ref, ptr noundef null) #18
  %.not1.i = icmp eq i32 %10, 0
  br i1 %.not1.i, label %11, label %can_use_remote_refs.exit

11:                                               ; preds = %7
  %12 = load i32, ptr %0, align 8, !tbaa !49
  %.not2.i = icmp eq i32 %12, 0
  br i1 %.not2.i, label %13, label %can_use_remote_refs.exit.thread

13:                                               ; preds = %11
  %14 = tail call ptr @remote_get(ptr noundef null) #18
  %.not3.i = icmp eq ptr %14, null
  br i1 %.not3.i, label %can_use_remote_refs.exit.thread, label %15

15:                                               ; preds = %13
  %16 = tail call fastcc ptr @_(ptr noundef nonnull @.str.61)
  tail call void (ptr, ...) @die(ptr noundef %16) #19
  unreachable

can_use_remote_refs.exit.thread:                  ; preds = %11, %13, %5
  %17 = getelementptr inbounds nuw i8, ptr %0, i64 8
  %18 = load i32, ptr %17, align 8, !tbaa !57
  %.not8 = icmp eq i32 %18, 0
  br i1 %.not8, label %19, label %25

19:                                               ; preds = %can_use_remote_refs.exit.thread
  %20 = load ptr, ptr @stderr, align 8, !tbaa !58
  %21 = load i32, ptr @git_gettext_enabled, align 4, !tbaa !38
  %.not4.i = icmp eq i32 %21, 0
  br i1 %.not4.i, label %_.exit, label %22

22:                                               ; preds = %19
  %23 = tail call ptr @dcgettext(ptr noundef null, ptr noundef nonnull @.str.60, i32 noundef 5) #18
  br label %_.exit

_.exit:                                           ; preds = %19, %22
  %.0.i11 = phi ptr [ %23, %22 ], [ @.str.60, %19 ]
  %24 = tail call i32 (ptr, ptr, ...) @fprintf_ln(ptr noundef %20, ptr noundef %.0.i11) #18
  br label %25

25:                                               ; preds = %_.exit, %can_use_remote_refs.exit.thread
  %.not9 = icmp eq i32 %1, 0
  br i1 %.not9, label %28, label %26

26:                                               ; preds = %25
  %27 = tail call fastcc ptr @_(ptr noundef nonnull @.str.36)
  tail call void (ptr, ...) @die(ptr noundef %27, ptr noundef nonnull @.str.37, ptr noundef nonnull @.str.38) #19
  unreachable

28:                                               ; preds = %25
  %29 = getelementptr inbounds nuw i8, ptr %0, i64 12
  %30 = load i32, ptr %29, align 4, !tbaa !44
  %.not10 = icmp eq i32 %30, 0
  br i1 %.not10, label %31, label %can_use_remote_refs.exit

31:                                               ; preds = %28
  %32 = tail call fastcc ptr @_(ptr noundef nonnull @.str.36)
  tail call void (ptr, ...) @die(ptr noundef %32, ptr noundef nonnull @.str.37, ptr noundef nonnull @.str.39) #19
  unreachable

can_use_remote_refs.exit:                         ; preds = %7, %28, %3
  %.0 = phi i32 [ 0, %3 ], [ 1, %28 ], [ 0, %7 ]
  ret i32 %.0
}